target datalayout = "e-m:e-p270:32:32-p271:32:32-p272:64:64-i64:64-i128:128-f80:128-n8:16:32:64-S128"
target triple = "x86_64-pc-linux-gnu"

%struct.Py_buffer = type { ptr, ptr, i64, i64, i32, i32, ptr, ptr, ptr, ptr, ptr }

@.str.96 = private unnamed_addr constant [22 x i8] c"w*|w*i:getargs_w_star\00", align 1

; Function Attrs: nounwind uwtable
define internal ptr @getargs_w_star_opt(ptr noundef %0, ptr noundef %1) #0 {
  %3 = alloca ptr, align 8
  %4 = alloca ptr, align 8
  %5 = alloca ptr, align 8
  %6 = alloca %struct.Py_buffer, align 8
  %7 = alloca %struct.Py_buffer, align 8
  %8 = alloca i32, align 4
  %9 = alloca i32, align 4
  %10 = alloca ptr, align 8
  %11 = alloca ptr, align 8
  store ptr %0, ptr %4, align 8, !tbaa !3
  store ptr %1, ptr %5, align 8, !tbaa !3
  call void @llvm.lifetime.start.p0(i64 80, ptr %6) #9
  call void @llvm.lifetime.start.p0(i64 80, ptr %7) #9
  call void @llvm.lifetime.start.p0(i64 4, ptr %8) #9
  store i32 1, ptr %8, align 4, !tbaa !9
  %12 = load ptr, ptr %5, align 8, !tbaa !3
  %13 = call i32 (ptr, ptr, ...) @PyArg_ParseTuple(ptr noundef %12, ptr noundef @.str.96, ptr noundef %6, ptr noundef %7, ptr noundef %8)
  %14 = icmp ne i32 %13, 0
  br i1 %14, label %16, label %15

15:                                               ; preds = %2
  store ptr null, ptr %3, align 8
  store i32 1, ptr %9, align 4
  br label %37

16:                                               ; preds = %2
  %17 = getelementptr inbounds nuw %struct.Py_buffer, ptr %6, i32 0, i32 2
  %18 = load i64, ptr %17, align 8, !tbaa !27
  %19 = icmp sle i64 2, %18
  br i1 %19, label %20, label %30

20:                                               ; preds = %16
  call void @llvm.lifetime.start.p0(i64 8, ptr %10) #9
  %21 = getelementptr inbounds nuw %struct.Py_buffer, ptr %6, i32 0, i32 0
  %22 = load ptr, ptr %21, align 8, !tbaa !24
  store ptr %22, ptr %10, align 8, !tbaa !17
  %23 = load ptr, ptr %10, align 8, !tbaa !17
  %24 = getelementptr i8, ptr %23, i64 0
  store i8 91, ptr %24, align 1, !tbaa !8
  %25 = load ptr, ptr %10, align 8, !tbaa !17
  %26 = getelementptr inbounds nuw %struct.Py_buffer, ptr %6, i32 0, i32 2
  %27 = load i64, ptr %26, align 8, !tbaa !27
  %28 = sub i64 %27, 1
  %29 = getelementptr i8, ptr %25, i64 %28
  store i8 93, ptr %29, align 1, !tbaa !8
  call void @llvm.lifetime.end.p0(i64 8, ptr %10) #9
  br label %30

30:                                               ; preds = %20, %16
  call void @llvm.lifetime.start.p0(i64 8, ptr %11) #9
  %31 = getelementptr inbounds nuw %struct.Py_buffer, ptr %6, i32 0, i32 0
  %32 = load ptr, ptr %31, align 8, !tbaa !24
  %33 = getelementptr inbounds nuw %struct.Py_buffer, ptr %6, i32 0, i32 2
  %34 = load i64, ptr %33, align 8, !tbaa !27
  %35 = call ptr @PyBytes_FromStringAndSize(ptr noundef %32, i64 noundef %34)
  store ptr %35, ptr %11, align 8, !tbaa !3
  call void @PyBuffer_Release(ptr noundef %6)
  %36 = load ptr, ptr %11, align 8, !tbaa !3
  store ptr %36, ptr %3, align 8
  store i32 1, ptr %9, align 4
  call void @llvm.lifetime.end.p0(i64 8, ptr %11) #9
  br label %37

37:                                               ; preds = %30, %15
  call void @llvm.lifetime.end.p0(i64 4, ptr %8) #9
  call void @llvm.lifetime.end.p0(i64 80, ptr %7) #9
  call void @llvm.lifetime.end.p0(i64 80, ptr %6) #9
  %38 = load ptr, ptr %3, align 8
  ret ptr %38
}