; Function Attrs: nounwind uwtable
define internal ptr @getargs_w_star_opt(ptr readnone captures(none) %0, ptr noundef %1) #0 {
  %3 = alloca %struct.Py_buffer, align 8
  %4 = alloca %struct.Py_buffer, align 8
  %5 = alloca i32, align 4
  call void @llvm.lifetime.start.p0(i64 80, ptr nonnull %3) #7
  call void @llvm.lifetime.start.p0(i64 80, ptr nonnull %4) #7
  call void @llvm.lifetime.start.p0(i64 4, ptr nonnull %5) #7
  store i32 1, ptr %5, align 4, !tbaa !6
  %6 = call i32 (ptr, ptr, ...) @PyArg_ParseTuple(ptr noundef %1, ptr noundef nonnull @.str.96, ptr noundef nonnull %3, ptr noundef nonnull %4, ptr noundef nonnull %5) #7
  %.not = icmp eq i32 %6, 0
  br i1 %.not, label %20, label %7

7:                                                ; preds = %2
  %8 = getelementptr inbounds nuw i8, ptr %3, i64 16
  %9 = load i64, ptr %8, align 8, !tbaa !34
  %10 = icmp sgt i64 %9, 1
  br i1 %10, label %11, label %16

11:                                               ; preds = %7
  %12 = load ptr, ptr %3, align 8, !tbaa !31
  store i8 91, ptr %12, align 1, !tbaa !3
  %13 = load i64, ptr %8, align 8, !tbaa !34
  %14 = getelementptr i8, ptr %12, i64 %13
  %15 = getelementptr i8, ptr %14, i64 -1
  store i8 93, ptr %15, align 1, !tbaa !3
  %.pre = load i64, ptr %8, align 8, !tbaa !34
  br label %16

16:                                               ; preds = %11, %7
  %17 = phi i64 [ %.pre, %11 ], [ %9, %7 ]
  %18 = load ptr, ptr %3, align 8, !tbaa !31
  %19 = call ptr @PyBytes_FromStringAndSize(ptr noundef %18, i64 noundef %17) #7
  call void @PyBuffer_Release(ptr noundef nonnull %3) #7
  br label %20

20:                                               ; preds = %2, %16
  %.0 = phi ptr [ %19, %16 ], [ null, %2 ]
  call void @llvm.lifetime.end.p0(i64 4, ptr nonnull %5) #7
  call void @llvm.lifetime.end.p0(i64 80, ptr nonnull %4) #7
  call void @llvm.lifetime.end.p0(i64 80, ptr nonnull %3) #7
  ret ptr %.0
}